target datalayout = "e-m:e-p270:32:32-p271:32:32-p272:64:64-i64:64-i128:128-f80:128-n8:16:32:64-S128"
target triple = "x86_64-pc-linux-gnu"

%struct.ident_t = type { i32, i32, i32, i32, ptr }
%"struct.faiss::AutoTuneCriterion" = type { ptr, i64, i64, i64, %"class.std::vector", %"class.std::vector.0" }
%"class.std::vector" = type { %"struct.std::_Vector_base" }
%"struct.std::_Vector_base" = type { %"struct.std::_Vector_base<float, std::allocator<float>>::_Vector_impl" }
%"struct.std::_Vector_base<float, std::allocator<float>>::_Vector_impl" = type { %"struct.std::_Vector_base<float, std::allocator<float>>::_Vector_impl_data" }
%"struct.std::_Vector_base<float, std::allocator<float>>::_Vector_impl_data" = type { ptr, ptr, ptr }
%"class.std::vector.0" = type { %"struct.std::_Vector_base.1" }
%"struct.std::_Vector_base.1" = type { %"struct.std::_Vector_base<long, std::allocator<long>>::_Vector_impl" }
%"struct.std::_Vector_base<long, std::allocator<long>>::_Vector_impl" = type { %"struct.std::_Vector_base<long, std::allocator<long>>::_Vector_impl_data" }
%"struct.std::_Vector_base<long, std::allocator<long>>::_Vector_impl_data" = type { ptr, ptr, ptr }
%"struct.faiss::IntersectionCriterion" = type { %"struct.faiss::AutoTuneCriterion", i64 }

@1 = private unnamed_addr constant %struct.ident_t { i32 0, i32 514, i32 0, i32 22, ptr @0 }, align 8
@.gomp_critical_user_.reduction.var = common global [8 x i32] zeroinitializer, align 8
@2 = private unnamed_addr constant %struct.ident_t { i32 0, i32 18, i32 0, i32 22, ptr @0 }, align 8

; Function Attrs: mustprogress nounwind uwtable
define linkonce_odr noundef nonnull align 8 dereferenceable(8) ptr @_ZNKSt6vectorIlSaIlEEixEm(ptr noundef nonnull align 8 dereferenceable(24) %0, i64 noundef %1) #1 comdat align 2 {
  %3 = alloca ptr, align 8
  %4 = alloca i64, align 8
  store ptr %0, ptr %3, align 8
  store i64 %1, ptr %4, align 8
  %5 = load ptr, ptr %3, align 8
  %6 = getelementptr inbounds %"struct.std::_Vector_base.1", ptr %5, i32 0, i32 0
  %7 = getelementptr inbounds %"struct.std::_Vector_base<long, std::allocator<long>>::_Vector_impl_data", ptr %6, i32 0, i32 0
  %8 = load ptr, ptr %7, align 8
  %9 = load i64, ptr %4, align 8
  %10 = getelementptr inbounds i64, ptr %8, i64 %9
  ret ptr %10
}

; Function Attrs: norecurse nounwind uwtable
define internal void @_ZNK5faiss21IntersectionCriterion8evaluateEPKfPKl.omp_outlined(ptr noalias noundef %0, ptr noalias noundef %1, ptr noundef %2, ptr noundef nonnull align 8 dereferenceable(8) %3, ptr noundef nonnull align 8 dereferenceable(8) %4) #12 personality ptr @__gxx_personality_v0 {
  %6 = alloca ptr, align 8
  %7 = alloca ptr, align 8
  %8 = alloca ptr, align 8
  %9 = alloca ptr, align 8
  %10 = alloca ptr, align 8
  %11 = alloca i64, align 8
  %12 = alloca i64, align 8
  %13 = alloca i64, align 8
  %14 = alloca i64, align 8
  %15 = alloca i64, align 8
  %16 = alloca i64, align 8
  %17 = alloca i64, align 8
  %18 = alloca i32, align 4
  %19 = alloca i64, align 8
  %20 = alloca i64, align 8
  %21 = alloca [1 x ptr], align 8
  store ptr %0, ptr %6, align 8
  store ptr %1, ptr %7, align 8
  store ptr %2, ptr %8, align 8
  store ptr %3, ptr %9, align 8
  store ptr %4, ptr %10, align 8
  %22 = load ptr, ptr %8, align 8
  %23 = load ptr, ptr %9, align 8
  %24 = load ptr, ptr %10, align 8
  %25 = getelementptr inbounds %"struct.faiss::AutoTuneCriterion", ptr %22, i32 0, i32 1
  %26 = load i64, ptr %25, align 8
  store i64 %26, ptr %12, align 8
  %27 = load i64, ptr %12, align 8
  %28 = sub nsw i64 %27, 0
  %29 = sdiv i64 %28, 1
  %30 = sub nsw i64 %29, 1
  store i64 %30, ptr %13, align 8
  store i64 0, ptr %14, align 8
  %31 = load i64, ptr %12, align 8
  %32 = icmp slt i64 0, %31
  br i1 %32, label %33, label %95

33:                                               ; preds = %5
  store i64 0, ptr %15, align 8
  %34 = load i64, ptr %13, align 8
  store i64 %34, ptr %16, align 8
  store i64 1, ptr %17, align 8
  store i32 0, ptr %18, align 4
  store i64 0, ptr %19, align 8
  %35 = load ptr, ptr %6, align 8
  %36 = load i32, ptr %35, align 4
  call void @__kmpc_for_static_init_8(ptr @1, i32 %36, i32 34, ptr %18, ptr %15, ptr %16, ptr %17, i64 1, i64 1)
  %37 = load i64, ptr %16, align 8
  %38 = load i64, ptr %13, align 8
  %39 = icmp sgt i64 %37, %38
  br i1 %39, label %40, label %42

40:                                               ; preds = %33
  %41 = load i64, ptr %13, align 8
  br label %44

42:                                               ; preds = %33
  %43 = load i64, ptr %16, align 8
  br label %44

44:                                               ; preds = %42, %40
  %45 = phi i64 [ %41, %40 ], [ %43, %42 ]
  store i64 %45, ptr %16, align 8
  %46 = load i64, ptr %15, align 8
  store i64 %46, ptr %11, align 8
  br label %47

47:                                               ; preds = %76, %44
  %48 = load i64, ptr %11, align 8
  %49 = load i64, ptr %16, align 8
  %50 = icmp sle i64 %48, %49
  br i1 %50, label %51, label %79

51:                                               ; preds = %47
  %52 = load i64, ptr %11, align 8
  %53 = mul nsw i64 %52, 1
  %54 = add nsw i64 0, %53
  store i64 %54, ptr %20, align 8
  %55 = getelementptr inbounds %"struct.faiss::IntersectionCriterion", ptr %22, i32 0, i32 1
  %56 = load i64, ptr %55, align 8
  %57 = getelementptr inbounds %"struct.faiss::AutoTuneCriterion", ptr %22, i32 0, i32 5
  %58 = load i64, ptr %20, align 8
  %59 = getelementptr inbounds %"struct.faiss::AutoTuneCriterion", ptr %22, i32 0, i32 3
  %60 = load i64, ptr %59, align 8
  %61 = mul nsw i64 %58, %60
  %62 = call noundef nonnull align 8 dereferenceable(8) ptr @_ZNKSt6vectorIlSaIlEEixEm(ptr noundef nonnull align 8 dereferenceable(24) %57, i64 noundef %61) #5
  %63 = getelementptr inbounds %"struct.faiss::IntersectionCriterion", ptr %22, i32 0, i32 1
  %64 = load i64, ptr %63, align 8
  %65 = load ptr, ptr %24, align 8
  %66 = load i64, ptr %20, align 8
  %67 = getelementptr inbounds %"struct.faiss::AutoTuneCriterion", ptr %22, i32 0, i32 2
  %68 = load i64, ptr %67, align 8
  %69 = mul nsw i64 %66, %68
  %70 = getelementptr inbounds i64, ptr %65, i64 %69
  %71 = invoke noundef i64 @_ZN5faiss26ranklist_intersection_sizeEmPKlmS1_(i64 noundef %56, ptr noundef %62, i64 noundef %64, ptr noundef %70)
          to label %72 unwind label %96

72:                                               ; preds = %51
  %73 = load i64, ptr %19, align 8
  %74 = add i64 %73, %71
  store i64 %74, ptr %19, align 8
  br label %75

75:                                               ; preds = %72
  br label %76

76:                                               ; preds = %75
  %77 = load i64, ptr %11, align 8
  %78 = add nsw i64 %77, 1
  store i64 %78, ptr %11, align 8
  br label %47

79:                                               ; preds = %47
  br label %80

80:                                               ; preds = %79
  %81 = load ptr, ptr %6, align 8
  %82 = load i32, ptr %81, align 4
  call void @__kmpc_for_static_fini(ptr @1, i32 %82)
  %83 = getelementptr inbounds [1 x ptr], ptr %21, i64 0, i64 0
  store ptr %19, ptr %83, align 8
  %84 = load ptr, ptr %6, align 8
  %85 = load i32, ptr %84, align 4
  %86 = call i32 @__kmpc_reduce_nowait(ptr @2, i32 %85, i32 1, i64 8, ptr %21, ptr @_ZNK5faiss21IntersectionCriterion8evaluateEPKfPKl.omp_outlined.omp.reduction.reduction_func, ptr @.gomp_critical_user_.reduction.var)
  switch i32 %86, label %94 [
    i32 1, label %87
    i32 2, label %91
  ]

87:                                               ; preds = %80
  %88 = load i64, ptr %23, align 8
  %89 = load i64, ptr %19, align 8
  %90 = add nsw i64 %88, %89
  store i64 %90, ptr %23, align 8
  call void @__kmpc_end_reduce_nowait(ptr @2, i32 %85, ptr @.gomp_critical_user_.reduction.var)
  br label %94

91:                                               ; preds = %80
  %92 = load i64, ptr %19, align 8
  %93 = atomicrmw add ptr %23, i64 %92 monotonic, align 8
  br label %94

94:                                               ; preds = %91, %87, %80
  br label %95

95:                                               ; preds = %94, %5
  ret void

96:                                               ; preds = %51
  %97 = landingpad { ptr, i32 }
          catch ptr null
  %98 = extractvalue { ptr, i32 } %97, 0
  call void @__clang_call_terminate(ptr %98) #21
  unreachable
}