; Function Attrs: norecurse nounwind uwtable
define internal void @_ZNK5faiss21IntersectionCriterion8evaluateEPKfPKl.omp_outlined(ptr noalias nocapture noundef readonly %0, ptr noalias nocapture readnone %1, ptr nocapture noundef readonly %2, ptr nocapture noundef nonnull align 8 dereferenceable(8) %3, ptr nocapture noundef nonnull readonly align 8 dereferenceable(8) %4) #13 personality ptr @__gxx_personality_v0 {
  %6 = alloca i64, align 8
  %7 = alloca i64, align 8
  %8 = alloca i64, align 8
  %9 = alloca i32, align 4
  %10 = alloca i64, align 8
  %11 = alloca [1 x ptr], align 8
  %12 = getelementptr inbounds i8, ptr %2, i64 8
  %13 = load i64, ptr %12, align 8
  %14 = icmp sgt i64 %13, 0
  br i1 %14, label %15, label %49

15:                                               ; preds = %5
  %16 = add nsw i64 %13, -1
  store i64 0, ptr %6, align 8
  store i64 %16, ptr %7, align 8
  store i64 1, ptr %8, align 8
  store i32 0, ptr %9, align 4
  store i64 0, ptr %10, align 8
  %17 = load i32, ptr %0, align 4
  call void @__kmpc_for_static_init_8(ptr nonnull @1, i32 %17, i32 34, ptr nonnull %9, ptr nonnull %6, ptr nonnull %7, ptr nonnull %8, i64 1, i64 1)
  %18 = load i64, ptr %7, align 8
  %19 = call i64 @llvm.smin.i64(i64 %18, i64 %16)
  store i64 %19, ptr %7, align 8
  %20 = load i64, ptr %6, align 8
  %.not15 = icmp sgt i64 %20, %19
  br i1 %.not15, label %._crit_edge, label %.lr.ph

.lr.ph:                                           ; preds = %15
  %21 = getelementptr inbounds i8, ptr %2, i64 80
  %22 = getelementptr inbounds i8, ptr %2, i64 56
  %23 = getelementptr inbounds i8, ptr %2, i64 24
  %24 = getelementptr inbounds i8, ptr %2, i64 16
  br label %25

25:                                               ; preds = %.lr.ph, %37
  %26 = phi i64 [ 0, %.lr.ph ], [ %38, %37 ]
  %.016 = phi i64 [ %20, %.lr.ph ], [ %39, %37 ]
  %27 = load i64, ptr %21, align 8
  %28 = load i64, ptr %23, align 8
  %29 = mul nsw i64 %28, %.016
  %30 = load ptr, ptr %22, align 8
  %31 = getelementptr inbounds i64, ptr %30, i64 %29
  %32 = load ptr, ptr %4, align 8
  %33 = load i64, ptr %24, align 8
  %34 = mul nsw i64 %33, %.016
  %35 = getelementptr inbounds i64, ptr %32, i64 %34
  %36 = invoke noundef i64 @_ZN5faiss26ranklist_intersection_sizeEmPKlmS1_(i64 noundef %27, ptr noundef nonnull %31, i64 noundef %27, ptr noundef %35)
          to label %37 unwind label %50

37:                                               ; preds = %25
  %38 = add i64 %26, %36
  store i64 %38, ptr %10, align 8
  %39 = add nsw i64 %.016, 1
  %40 = load i64, ptr %7, align 8
  %.not.not = icmp slt i64 %.016, %40
  br i1 %.not.not, label %25, label %._crit_edge

._crit_edge:                                      ; preds = %37, %15
  call void @__kmpc_for_static_fini(ptr nonnull @1, i32 %17)
  store ptr %10, ptr %11, align 8
  %41 = call i32 @__kmpc_reduce_nowait(ptr nonnull @2, i32 %17, i32 1, i64 8, ptr nonnull %11, ptr nonnull @_ZNK5faiss21IntersectionCriterion8evaluateEPKfPKl.omp_outlined.omp.reduction.reduction_func, ptr nonnull @.gomp_critical_user_.reduction.var)
  switch i32 %41, label %49 [
    i32 1, label %42
    i32 2, label %46
  ]

42:                                               ; preds = %._crit_edge
  %43 = load i64, ptr %3, align 8
  %44 = load i64, ptr %10, align 8
  %45 = add nsw i64 %44, %43
  store i64 %45, ptr %3, align 8
  call void @__kmpc_end_reduce_nowait(ptr nonnull @2, i32 %17, ptr nonnull @.gomp_critical_user_.reduction.var)
  br label %49

46:                                               ; preds = %._crit_edge
  %47 = load i64, ptr %10, align 8
  %48 = atomicrmw add ptr %3, i64 %47 monotonic, align 8
  br label %49

49:                                               ; preds = %._crit_edge, %42, %46, %5
  ret void

50:                                               ; preds = %25
  %51 = landingpad { ptr, i32 }
          catch ptr null
  %52 = extractvalue { ptr, i32 } %51, 0
  call void @__clang_call_terminate(ptr %52) #33
  unreachable
}